; ModuleID = '22/879.c'
source_filename = "22/879.c"
target datalayout = "e-m:e-p270:32:32-p271:32:32-p272:64:64-i64:64-f80:128-n8:16:32:64-S128"
target triple = "x86_64-pc-linux-gnu"

@.str = private unnamed_addr constant [5 x i8] c"%d%c\00", align 1
@.str.1 = private unnamed_addr constant [3 x i8] c"No\00", align 1
@.str.2 = private unnamed_addr constant [3 x i8] c"%d\00", align 1

; Function Attrs: noinline nounwind uwtable
define dso_local i32 @main() #0 {
  %1 = alloca i32, align 4
  %2 = alloca i32, align 4
  %3 = alloca i32, align 4
  %4 = alloca i32, align 4
  %5 = alloca i32, align 4
  %6 = alloca i32, align 4
  %7 = alloca i32, align 4
  %8 = alloca i8, align 1
  store i32 0, i32* %1, align 4
  store i32 0, i32* %7, align 4
  %9 = call i32 (i8*, ...) @__isoc99_scanf(i8* getelementptr inbounds ([5 x i8], [5 x i8]* @.str, i64 0, i64 0), i32* %2, i8* %8)
  %10 = load i8, i8* %8, align 1
  %11 = sext i8 %10 to i32
  %12 = icmp eq i32 %11, 10
  br i1 %12, label %13, label %15

13:                                               ; preds = %0
  %14 = call i32 (i8*, ...) @printf(i8* getelementptr inbounds ([3 x i8], [3 x i8]* @.str.1, i64 0, i64 0))
  br label %88

15:                                               ; preds = %0
  %16 = call i32 (i8*, ...) @__isoc99_scanf(i8* getelementptr inbounds ([5 x i8], [5 x i8]* @.str, i64 0, i64 0), i32* %3, i8* %8)
  %17 = load i32, i32* %2, align 4
  %18 = load i32, i32* %3, align 4
  %19 = icmp sgt i32 %17, %18
  br i1 %19, label %20, label %23

20:                                               ; preds = %15
  %21 = load i32, i32* %2, align 4
  store i32 %21, i32* %4, align 4
  %22 = load i32, i32* %3, align 4
  store i32 %22, i32* %5, align 4
  store i32 1, i32* %7, align 4
  br label %34

23:                                               ; preds = %15
  %24 = load i32, i32* %2, align 4
  %25 = load i32, i32* %3, align 4
  %26 = icmp slt i32 %24, %25
  br i1 %26, label %27, label %30

27:                                               ; preds = %23
  %28 = load i32, i32* %3, align 4
  store i32 %28, i32* %4, align 4
  %29 = load i32, i32* %2, align 4
  store i32 %29, i32* %5, align 4
  store i32 1, i32* %7, align 4
  br label %33

30:                                               ; preds = %23
  %31 = load i32, i32* %2, align 4
  store i32 %31, i32* %4, align 4
  %32 = load i32, i32* %3, align 4
  store i32 %32, i32* %5, align 4
  store i32 0, i32* %7, align 4
  br label %33

33:                                               ; preds = %30, %27
  br label %34

34:                                               ; preds = %33, %20
  br label %35

35:                                               ; preds = %78, %34
  %36 = load i8, i8* %8, align 1
  %37 = sext i8 %36 to i32
  %38 = icmp eq i32 %37, 44
  br i1 %38, label %39, label %79

39:                                               ; preds = %35
  %40 = call i32 (i8*, ...) @__isoc99_scanf(i8* getelementptr inbounds ([5 x i8], [5 x i8]* @.str, i64 0, i64 0), i32* %6, i8* %8)
  %41 = load i32, i32* %6, align 4
  %42 = load i32, i32* %2, align 4
  %43 = icmp ne i32 %41, %42
  br i1 %43, label %48, label %44

44:                                               ; preds = %39
  %45 = load i32, i32* %6, align 4
  %46 = load i32, i32* %3, align 4
  %47 = icmp ne i32 %45, %46
  br i1 %47, label %48, label %49

48:                                               ; preds = %44, %39
  store i32 1, i32* %7, align 4
  br label %49

49:                                               ; preds = %48, %44
  %50 = load i32, i32* %6, align 4
  %51 = load i32, i32* %5, align 4
  %52 = icmp sgt i32 %50, %51
  br i1 %52, label %53, label %59

53:                                               ; preds = %49
  %54 = load i32, i32* %6, align 4
  %55 = load i32, i32* %4, align 4
  %56 = icmp slt i32 %54, %55
  br i1 %56, label %57, label %59

57:                                               ; preds = %53
  %58 = load i32, i32* %6, align 4
  store i32 %58, i32* %5, align 4
  br label %78

59:                                               ; preds = %53, %49
  %60 = load i32, i32* %6, align 4
  %61 = load i32, i32* %4, align 4
  %62 = icmp sgt i32 %60, %61
  br i1 %62, label %63, label %66

63:                                               ; preds = %59
  %64 = load i32, i32* %4, align 4
  store i32 %64, i32* %5, align 4
  %65 = load i32, i32* %6, align 4
  store i32 %65, i32* %4, align 4
  br label %77

66:                                               ; preds = %59
  %67 = load i32, i32* %6, align 4
  %68 = load i32, i32* %5, align 4
  %69 = icmp slt i32 %67, %68
  br i1 %69, label %70, label %76

70:                                               ; preds = %66
  %71 = load i32, i32* %5, align 4
  %72 = load i32, i32* %4, align 4
  %73 = icmp eq i32 %71, %72
  br i1 %73, label %74, label %76

74:                                               ; preds = %70
  %75 = load i32, i32* %6, align 4
  store i32 %75, i32* %5, align 4
  br label %76

76:                                               ; preds = %74, %70, %66
  br label %77

77:                                               ; preds = %76, %63
  br label %78

78:                                               ; preds = %77, %57
  br label %35

79:                                               ; preds = %35
  %80 = load i32, i32* %7, align 4
  %81 = icmp eq i32 %80, 0
  br i1 %81, label %82, label %84

82:                                               ; preds = %79
  %83 = call i32 (i8*, ...) @printf(i8* getelementptr inbounds ([3 x i8], [3 x i8]* @.str.1, i64 0, i64 0))
  br label %87

84:                                               ; preds = %79
  %85 = load i32, i32* %5, align 4
  %86 = call i32 (i8*, ...) @printf(i8* getelementptr inbounds ([3 x i8], [3 x i8]* @.str.2, i64 0, i64 0), i32 %85)
  br label %87

87:                                               ; preds = %84, %82
  br label %88

88:                                               ; preds = %87, %13
  ret i32 0
}

declare dso_local i32 @__isoc99_scanf(i8*, ...) #1

declare dso_local i32 @printf(i8*, ...) #1


!llvm.module.flags = !{!0}
!llvm.ident = !{!1}

!0 = !{i32 1, !"wchar_size", i32 4}
!1 = !{!"clang version 10.0.0-4ubuntu1 "}
